; Function Attrs: nounwind uwtable
define noundef ptr @PKCS12_SAFEBAG_get1_cert_ex(ptr noundef readonly captures(none) %0, ptr noundef %1, ptr noundef %2) local_unnamed_addr #0 {
  %4 = load ptr, ptr %0, align 8, !tbaa !10
  %5 = tail call i32 @OBJ_obj2nid(ptr noundef %4) #4
  %.not = icmp eq i32 %5, 152
  br i1 %.not, label %6, label %19

6:                                                ; preds = %3
  %7 = getelementptr inbounds nuw i8, ptr %0, i64 8
  %8 = load ptr, ptr %7, align 8, !tbaa !11
  %9 = load ptr, ptr %8, align 8, !tbaa !12
  %10 = tail call i32 @OBJ_obj2nid(ptr noundef %9) #4
  %.not11 = icmp eq i32 %10, 158
  br i1 %.not11, label %11, label %19

11:                                               ; preds = %6
  %12 = load ptr, ptr %7, align 8, !tbaa !11
  %13 = getelementptr inbounds nuw i8, ptr %12, i64 8
  %14 = load ptr, ptr %13, align 8, !tbaa !11
  %15 = tail call ptr @X509_it() #4
  %16 = tail call ptr @ASN1_item_unpack_ex(ptr noundef %14, ptr noundef %15, ptr noundef %1, ptr noundef %2) #4
  %17 = tail call i32 @ossl_x509_set0_libctx(ptr noundef %16, ptr noundef %1, ptr noundef %2) #4
  %.not12 = icmp eq i32 %17, 0
  br i1 %.not12, label %18, label %19

18:                                               ; preds = %11
  tail call void @X509_free(ptr noundef %16) #4
  br label %19

19:                                               ; preds = %11, %6, %3, %18
  %.0 = phi ptr [ null, %18 ], [ null, %3 ], [ null, %6 ], [ %16, %11 ]
  ret ptr %.0
}